target datalayout = "e-m:e-p270:32:32-p271:32:32-p272:64:64-i64:64-i128:128-f80:128-n8:16:32:64-S128"
target triple = "x86_64-pc-linux-gnu"

%struct.H5VL_loc_params_t = type { i32, i32, %union.anon }
%union.anon = type { %struct.H5VL_loc_by_idx }
%struct.H5VL_loc_by_idx = type { ptr, i32, i32, i64, i64 }
%struct.H5VL_loc_by_name = type { ptr, i64 }
%struct.H5VL_link_get_args_t = type { i32, %union.anon.5 }
%union.anon.5 = type { %struct.anon.7 }
%struct.anon.7 = type { i64, ptr, ptr }
%struct.anon.8 = type { i64, ptr }

@H5_libinit_g = external global i8, align 1
@H5_libterm_g = external global i8, align 1
@.str = private unnamed_addr constant [103 x i8] c"generated/home/dtcxzyw/WorkSpace/Projects/compilers/llvm-opt-benchmark/bench/hdf5/hdf5/src/H5Gdeprec.c\00", align 1
@H5E_FUNC_g = external global i64, align 8
@H5E_CANTINIT_g = external global i64, align 8
@.str.1 = private unnamed_addr constant [30 x i8] c"library initialization failed\00", align 1
@H5E_CANTSET_g = external global i64, align 8
@.str.2 = private unnamed_addr constant [22 x i8] c"can't set API context\00", align 1
@H5E_ARGS_g = external global i64, align 8
@H5E_BADVALUE_g = external global i64, align 8
@H5E_BADTYPE_g = external global i64, align 8
@H5E_SYM_g = external global i64, align 8
@H5E_CANTGET_g = external global i64, align 8
@.str.10 = private unnamed_addr constant [40 x i8] c"can't set collective metadata read info\00", align 1
@.str.11 = private unnamed_addr constant [28 x i8] c"invalid location identifier\00", align 1
@H5P_LST_DATASET_XFER_ID_g = external global i64, align 8
@H5P_LST_LINK_ACCESS_ID_g = external global i64, align 8
@__func__.H5Gget_linkval = private unnamed_addr constant [15 x i8] c"H5Gget_linkval\00", align 1
@.str.26 = private unnamed_addr constant [18 x i8] c"no name specified\00", align 1
@.str.27 = private unnamed_addr constant [25 x i8] c"unable to get link value\00", align 1

; Function Attrs: nounwind uwtable
define i32 @H5Gget_linkval(i64 noundef %0, ptr noundef %1, i64 noundef %2, ptr noundef %3) #0 {
  %5 = alloca i64, align 8
  %6 = alloca ptr, align 8
  %7 = alloca i64, align 8
  %8 = alloca ptr, align 8
  %9 = alloca ptr, align 8
  %10 = alloca %struct.H5VL_link_get_args_t, align 8
  %11 = alloca %struct.H5VL_loc_params_t, align 8
  %12 = alloca i32, align 4
  %13 = alloca i8, align 1
  %14 = alloca i8, align 1
  store i64 %0, ptr %5, align 8
  store ptr %1, ptr %6, align 8
  store i64 %2, ptr %7, align 8
  store ptr %3, ptr %8, align 8
  store i32 0, ptr %12, align 4
  store i8 0, ptr %13, align 1
  store i8 0, ptr %14, align 1
  %15 = load i8, ptr @H5_libinit_g, align 1
  %16 = trunc i8 %15 to i1
  br i1 %16, label %21, label %17

17:                                               ; preds = %4
  %18 = load i8, ptr @H5_libterm_g, align 1
  %19 = trunc i8 %18 to i1
  %20 = xor i1 %19, true
  br label %21

21:                                               ; preds = %17, %4
  %22 = phi i1 [ false, %4 ], [ %20, %17 ]
  %23 = xor i1 %22, true
  %24 = xor i1 %23, true
  %25 = zext i1 %24 to i32
  %26 = sext i32 %25 to i64
  %27 = icmp ne i64 %26, 0
  br i1 %27, label %28, label %52

28:                                               ; preds = %21
  %29 = call i32 @H5_init_library()
  %30 = icmp slt i32 %29, 0
  %31 = xor i1 %30, true
  %32 = xor i1 %31, true
  %33 = zext i1 %32 to i32
  %34 = sext i32 %33 to i64
  %35 = icmp ne i64 %34, 0
  br i1 %35, label %36, label %51

36:                                               ; preds = %28
  br label %37

37:                                               ; preds = %36
  br label %38

38:                                               ; preds = %37
  br label %39

39:                                               ; preds = %38
  %40 = load i64, ptr @H5E_FUNC_g, align 8
  %41 = load i64, ptr @H5E_CANTINIT_g, align 8
  %42 = call i32 (ptr, ptr, i32, i64, i64, ptr, ...) @H5E_printf_stack(ptr noundef @.str, ptr noundef @__func__.H5Gget_linkval, i32 noundef 621, i64 noundef %40, i64 noundef %41, ptr noundef @.str.1)
  br label %43

43:                                               ; preds = %39
  store i8 1, ptr %14, align 1
  %44 = load i8, ptr %14, align 1
  %45 = trunc i8 %44 to i1
  %46 = zext i1 %45 to i8
  store i8 %46, ptr %14, align 1
  br label %47

47:                                               ; preds = %43
  br label %48

48:                                               ; preds = %47
  store i32 -1, ptr %12, align 4
  br label %175

49:                                               ; No predecessors!
  br label %50

50:                                               ; preds = %49
  br label %51

51:                                               ; preds = %50, %28
  br label %52

52:                                               ; preds = %51, %21
  %53 = call i32 @H5CX_push()
  %54 = icmp slt i32 %53, 0
  %55 = xor i1 %54, true
  %56 = xor i1 %55, true
  %57 = zext i1 %56 to i32
  %58 = sext i32 %57 to i64
  %59 = icmp ne i64 %58, 0
  br i1 %59, label %60, label %75

60:                                               ; preds = %52
  br label %61

61:                                               ; preds = %60
  br label %62

62:                                               ; preds = %61
  br label %63

63:                                               ; preds = %62
  %64 = load i64, ptr @H5E_FUNC_g, align 8
  %65 = load i64, ptr @H5E_CANTSET_g, align 8
  %66 = call i32 (ptr, ptr, i32, i64, i64, ptr, ...) @H5E_printf_stack(ptr noundef @.str, ptr noundef @__func__.H5Gget_linkval, i32 noundef 621, i64 noundef %64, i64 noundef %65, ptr noundef @.str.2)
  br label %67

67:                                               ; preds = %63
  store i8 1, ptr %14, align 1
  %68 = load i8, ptr %14, align 1
  %69 = trunc i8 %68 to i1
  %70 = zext i1 %69 to i8
  store i8 %70, ptr %14, align 1
  br label %71

71:                                               ; preds = %67
  br label %72

72:                                               ; preds = %71
  store i32 -1, ptr %12, align 4
  br label %175

73:                                               ; No predecessors!
  br label %74

74:                                               ; preds = %73
  br label %76

75:                                               ; preds = %52
  store i8 1, ptr %13, align 1
  br label %76

76:                                               ; preds = %75, %74
  %77 = call i32 @H5E_clear_stack()
  %78 = load ptr, ptr %6, align 8
  %79 = icmp ne ptr %78, null
  br i1 %79, label %80, label %84

80:                                               ; preds = %76
  %81 = load ptr, ptr %6, align 8
  %82 = load i8, ptr %81, align 1
  %83 = icmp ne i8 %82, 0
  br i1 %83, label %99, label %84

84:                                               ; preds = %80, %76
  br label %85

85:                                               ; preds = %84
  br label %86

86:                                               ; preds = %85
  br label %87

87:                                               ; preds = %86
  %88 = load i64, ptr @H5E_ARGS_g, align 8
  %89 = load i64, ptr @H5E_BADVALUE_g, align 8
  %90 = call i32 (ptr, ptr, i32, i64, i64, ptr, ...) @H5E_printf_stack(ptr noundef @.str, ptr noundef @__func__.H5Gget_linkval, i32 noundef 625, i64 noundef %88, i64 noundef %89, ptr noundef @.str.26)
  br label %91

91:                                               ; preds = %87
  store i8 1, ptr %14, align 1
  %92 = load i8, ptr %14, align 1
  %93 = trunc i8 %92 to i1
  %94 = zext i1 %93 to i8
  store i8 %94, ptr %14, align 1
  br label %95

95:                                               ; preds = %91
  br label %96

96:                                               ; preds = %95
  store i32 -1, ptr %12, align 4
  br label %175

97:                                               ; No predecessors!
  br label %98

98:                                               ; preds = %97
  br label %99

99:                                               ; preds = %98, %80
  %100 = load i64, ptr %5, align 8
  %101 = call i32 @H5CX_set_loc(i64 noundef %100)
  %102 = icmp slt i32 %101, 0
  br i1 %102, label %103, label %118

103:                                              ; preds = %99
  br label %104

104:                                              ; preds = %103
  br label %105

105:                                              ; preds = %104
  br label %106

106:                                              ; preds = %105
  %107 = load i64, ptr @H5E_SYM_g, align 8
  %108 = load i64, ptr @H5E_CANTSET_g, align 8
  %109 = call i32 (ptr, ptr, i32, i64, i64, ptr, ...) @H5E_printf_stack(ptr noundef @.str, ptr noundef @__func__.H5Gget_linkval, i32 noundef 629, i64 noundef %107, i64 noundef %108, ptr noundef @.str.10)
  br label %110

110:                                              ; preds = %106
  store i8 1, ptr %14, align 1
  %111 = load i8, ptr %14, align 1
  %112 = trunc i8 %111 to i1
  %113 = zext i1 %112 to i8
  store i8 %113, ptr %14, align 1
  br label %114

114:                                              ; preds = %110
  br label %115

115:                                              ; preds = %114
  store i32 -1, ptr %12, align 4
  br label %175

116:                                              ; No predecessors!
  br label %117

117:                                              ; preds = %116
  br label %118

118:                                              ; preds = %117, %99
  %119 = getelementptr inbounds %struct.H5VL_loc_params_t, ptr %11, i32 0, i32 1
  store i32 1, ptr %119, align 4
  %120 = load i64, ptr %5, align 8
  %121 = call i32 @H5I_get_type(i64 noundef %120)
  %122 = getelementptr inbounds %struct.H5VL_loc_params_t, ptr %11, i32 0, i32 0
  store i32 %121, ptr %122, align 8
  %123 = load ptr, ptr %6, align 8
  %124 = getelementptr inbounds %struct.H5VL_loc_params_t, ptr %11, i32 0, i32 2
  %125 = getelementptr inbounds %struct.H5VL_loc_by_name, ptr %124, i32 0, i32 0
  store ptr %123, ptr %125, align 8
  %126 = load i64, ptr @H5P_LST_LINK_ACCESS_ID_g, align 8
  %127 = getelementptr inbounds %struct.H5VL_loc_params_t, ptr %11, i32 0, i32 2
  %128 = getelementptr inbounds %struct.H5VL_loc_by_name, ptr %127, i32 0, i32 1
  store i64 %126, ptr %128, align 8
  %129 = load i64, ptr %5, align 8
  %130 = call ptr @H5I_object(i64 noundef %129)
  store ptr %130, ptr %9, align 8
  %131 = icmp eq ptr null, %130
  br i1 %131, label %132, label %147

132:                                              ; preds = %118
  br label %133

133:                                              ; preds = %132
  br label %134

134:                                              ; preds = %133
  br label %135

135:                                              ; preds = %134
  %136 = load i64, ptr @H5E_ARGS_g, align 8
  %137 = load i64, ptr @H5E_BADTYPE_g, align 8
  %138 = call i32 (ptr, ptr, i32, i64, i64, ptr, ...) @H5E_printf_stack(ptr noundef @.str, ptr noundef @__func__.H5Gget_linkval, i32 noundef 639, i64 noundef %136, i64 noundef %137, ptr noundef @.str.11)
  br label %139

139:                                              ; preds = %135
  store i8 1, ptr %14, align 1
  %140 = load i8, ptr %14, align 1
  %141 = trunc i8 %140 to i1
  %142 = zext i1 %141 to i8
  store i8 %142, ptr %14, align 1
  br label %143

143:                                              ; preds = %139
  br label %144

144:                                              ; preds = %143
  store i32 -1, ptr %12, align 4
  br label %175

145:                                              ; No predecessors!
  br label %146

146:                                              ; preds = %145
  br label %147

147:                                              ; preds = %146, %118
  %148 = getelementptr inbounds %struct.H5VL_link_get_args_t, ptr %10, i32 0, i32 0
  store i32 2, ptr %148, align 8
  %149 = load ptr, ptr %8, align 8
  %150 = getelementptr inbounds %struct.H5VL_link_get_args_t, ptr %10, i32 0, i32 1
  %151 = getelementptr inbounds %struct.anon.8, ptr %150, i32 0, i32 1
  store ptr %149, ptr %151, align 8
  %152 = load i64, ptr %7, align 8
  %153 = getelementptr inbounds %struct.H5VL_link_get_args_t, ptr %10, i32 0, i32 1
  %154 = getelementptr inbounds %struct.anon.8, ptr %153, i32 0, i32 0
  store i64 %152, ptr %154, align 8
  %155 = load ptr, ptr %9, align 8
  %156 = load i64, ptr @H5P_LST_DATASET_XFER_ID_g, align 8
  %157 = call i32 @H5VL_link_get(ptr noundef %155, ptr noundef %11, ptr noundef %10, i64 noundef %156, ptr noundef null)
  %158 = icmp slt i32 %157, 0
  br i1 %158, label %159, label %174

159:                                              ; preds = %147
  br label %160

160:                                              ; preds = %159
  br label %161

161:                                              ; preds = %160
  br label %162

162:                                              ; preds = %161
  %163 = load i64, ptr @H5E_SYM_g, align 8
  %164 = load i64, ptr @H5E_CANTGET_g, align 8
  %165 = call i32 (ptr, ptr, i32, i64, i64, ptr, ...) @H5E_printf_stack(ptr noundef @.str, ptr noundef @__func__.H5Gget_linkval, i32 noundef 648, i64 noundef %163, i64 noundef %164, ptr noundef @.str.27)
  br label %166

166:                                              ; preds = %162
  store i8 1, ptr %14, align 1
  %167 = load i8, ptr %14, align 1
  %168 = trunc i8 %167 to i1
  %169 = zext i1 %168 to i8
  store i8 %169, ptr %14, align 1
  br label %170

170:                                              ; preds = %166
  br label %171

171:                                              ; preds = %170
  store i32 -1, ptr %12, align 4
  br label %175

172:                                              ; No predecessors!
  br label %173

173:                                              ; preds = %172
  br label %174

174:                                              ; preds = %173, %147
  br label %175

175:                                              ; preds = %174, %171, %144, %115, %96, %72, %48
  %176 = load i8, ptr %13, align 1
  %177 = trunc i8 %176 to i1
  %178 = xor i1 %177, true
  %179 = xor i1 %178, true
  %180 = zext i1 %179 to i32
  %181 = sext i32 %180 to i64
  %182 = icmp ne i64 %181, 0
  br i1 %182, label %183, label %185

183:                                              ; preds = %175
  %184 = call i32 @H5CX_pop(i1 noundef zeroext true)
  store i8 0, ptr %13, align 1
  br label %185

185:                                              ; preds = %183, %175
  %186 = load i8, ptr %14, align 1
  %187 = trunc i8 %186 to i1
  %188 = xor i1 %187, true
  %189 = xor i1 %188, true
  %190 = zext i1 %189 to i32
  %191 = sext i32 %190 to i64
  %192 = icmp ne i64 %191, 0
  br i1 %192, label %193, label %195

193:                                              ; preds = %185
  %194 = call i32 @H5E_dump_api_stack()
  br label %195

195:                                              ; preds = %193, %185
  %196 = load i32, ptr %12, align 4
  ret i32 %196
}