; Function Attrs: nounwind uwtable
define range(i32 -1, 1) i32 @H5Gget_linkval(i64 noundef %0, ptr noundef %1, i64 noundef %2, ptr noundef %3) local_unnamed_addr #1 {
  %5 = alloca %struct.H5VL_link_get_args_t, align 8
  %6 = alloca %struct.H5VL_loc_params_t, align 8
  %7 = load i8, ptr @H5_libinit_g, align 1
  %8 = trunc i8 %7 to i1
  %9 = load i8, ptr @H5_libterm_g, align 1
  %10 = trunc i8 %9 to i1
  %11 = select i1 %8, i1 true, i1 %10
  br i1 %11, label %19, label %12

12:                                               ; preds = %4
  %13 = tail call i32 @H5_init_library() #4
  %14 = icmp slt i32 %13, 0
  br i1 %14, label %15, label %19

15:                                               ; preds = %12
  %16 = load i64, ptr @H5E_FUNC_g, align 8
  %17 = load i64, ptr @H5E_CANTINIT_g, align 8
  %18 = tail call i32 (ptr, ptr, i32, i64, i64, ptr, ...) @H5E_printf_stack(ptr noundef nonnull @.str, ptr noundef nonnull @__func__.H5Gget_linkval, i32 noundef 621, i64 noundef %16, i64 noundef %17, ptr noundef nonnull @.str.1) #4
  br label %.thread30

19:                                               ; preds = %12, %4
  %20 = tail call i32 @H5CX_push() #4
  %21 = icmp slt i32 %20, 0
  br i1 %21, label %22, label %26

22:                                               ; preds = %19
  %23 = load i64, ptr @H5E_FUNC_g, align 8
  %24 = load i64, ptr @H5E_CANTSET_g, align 8
  %25 = tail call i32 (ptr, ptr, i32, i64, i64, ptr, ...) @H5E_printf_stack(ptr noundef nonnull @.str, ptr noundef nonnull @__func__.H5Gget_linkval, i32 noundef 621, i64 noundef %23, i64 noundef %24, ptr noundef nonnull @.str.2) #4
  br label %.thread30

26:                                               ; preds = %19
  %27 = tail call i32 @H5E_clear_stack() #4
  %.not = icmp eq ptr %1, null
  br i1 %.not, label %30, label %28

28:                                               ; preds = %26
  %29 = load i8, ptr %1, align 1
  %.not21 = icmp eq i8 %29, 0
  br i1 %.not21, label %30, label %34

30:                                               ; preds = %26, %28
  %31 = load i64, ptr @H5E_ARGS_g, align 8
  %32 = load i64, ptr @H5E_BADVALUE_g, align 8
  %33 = tail call i32 (ptr, ptr, i32, i64, i64, ptr, ...) @H5E_printf_stack(ptr noundef nonnull @.str, ptr noundef nonnull @__func__.H5Gget_linkval, i32 noundef 625, i64 noundef %31, i64 noundef %32, ptr noundef nonnull @.str.26) #4
  br label %.thread36

34:                                               ; preds = %28
  %35 = tail call i32 @H5CX_set_loc(i64 noundef %0) #4
  %36 = icmp slt i32 %35, 0
  br i1 %36, label %37, label %41

37:                                               ; preds = %34
  %38 = load i64, ptr @H5E_SYM_g, align 8
  %39 = load i64, ptr @H5E_CANTSET_g, align 8
  %40 = tail call i32 (ptr, ptr, i32, i64, i64, ptr, ...) @H5E_printf_stack(ptr noundef nonnull @.str, ptr noundef nonnull @__func__.H5Gget_linkval, i32 noundef 629, i64 noundef %38, i64 noundef %39, ptr noundef nonnull @.str.10) #4
  br label %.thread36

41:                                               ; preds = %34
  %42 = getelementptr inbounds i8, ptr %6, i64 4
  store i32 1, ptr %42, align 4
  %43 = tail call i32 @H5I_get_type(i64 noundef %0) #4
  store i32 %43, ptr %6, align 8
  %44 = getelementptr inbounds i8, ptr %6, i64 8
  store ptr %1, ptr %44, align 8
  %45 = load i64, ptr @H5P_LST_LINK_ACCESS_ID_g, align 8
  %46 = getelementptr inbounds i8, ptr %6, i64 16
  store i64 %45, ptr %46, align 8
  %47 = tail call ptr @H5I_object(i64 noundef %0) #4
  %48 = icmp eq ptr %47, null
  br i1 %48, label %49, label %53

49:                                               ; preds = %41
  %50 = load i64, ptr @H5E_ARGS_g, align 8
  %51 = load i64, ptr @H5E_BADTYPE_g, align 8
  %52 = tail call i32 (ptr, ptr, i32, i64, i64, ptr, ...) @H5E_printf_stack(ptr noundef nonnull @.str, ptr noundef nonnull @__func__.H5Gget_linkval, i32 noundef 639, i64 noundef %50, i64 noundef %51, ptr noundef nonnull @.str.11) #4
  br label %.thread36

53:                                               ; preds = %41
  store i32 2, ptr %5, align 8
  %54 = getelementptr inbounds i8, ptr %5, i64 8
  %55 = getelementptr inbounds i8, ptr %5, i64 16
  store ptr %3, ptr %55, align 8
  store i64 %2, ptr %54, align 8
  %56 = load i64, ptr @H5P_LST_DATASET_XFER_ID_g, align 8
  %57 = call i32 @H5VL_link_get(ptr noundef nonnull %47, ptr noundef nonnull %6, ptr noundef nonnull %5, i64 noundef %56, ptr noundef null) #4
  %58 = icmp slt i32 %57, 0
  br i1 %58, label %59, label %64

59:                                               ; preds = %53
  %60 = load i64, ptr @H5E_SYM_g, align 8
  %61 = load i64, ptr @H5E_CANTGET_g, align 8
  %62 = call i32 (ptr, ptr, i32, i64, i64, ptr, ...) @H5E_printf_stack(ptr noundef nonnull @.str, ptr noundef nonnull @__func__.H5Gget_linkval, i32 noundef 648, i64 noundef %60, i64 noundef %61, ptr noundef nonnull @.str.27) #4
  br label %.thread36

.thread36:                                        ; preds = %30, %59, %49, %37
  %63 = call i32 @H5CX_pop(i1 noundef zeroext true) #4
  br label %.thread30

64:                                               ; preds = %53
  %65 = call i32 @H5CX_pop(i1 noundef zeroext true) #4
  br label %67

.thread30:                                        ; preds = %22, %15, %.thread36
  %66 = call i32 @H5E_dump_api_stack() #4
  br label %67

67:                                               ; preds = %64, %.thread30
  %.0182533 = phi i32 [ -1, %.thread30 ], [ 0, %64 ]
  ret i32 %.0182533
}